; Function Attrs: nounwind uwtable
define i32 @fdt_stringlist_search(ptr noundef %0, i32 noundef %1, ptr noundef readonly captures(none) %2, ptr noundef readonly captures(none) %3) local_unnamed_addr #0 {
  %5 = alloca i32, align 4
  %6 = alloca i32, align 4
  call void @llvm.lifetime.start.p0(i64 4, ptr nonnull %6) #9
  %7 = tail call i64 @strlen(ptr noundef nonnull readonly dereferenceable(1) %2) #10
  %8 = trunc i64 %7 to i32
  call void @llvm.lifetime.start.p0(i64 4, ptr nonnull %5) #9
  %9 = call fastcc ptr @fdt_get_property_namelen_(ptr noundef %0, i32 noundef %1, ptr noundef nonnull readonly %2, i32 noundef %8, ptr noundef nonnull %6, ptr noundef nonnull %5)
  %.not.i.i = icmp eq ptr %9, null
  br i1 %.not.i.i, label %54, label %10

10:                                               ; preds = %4
  %11 = getelementptr inbounds nuw i8, ptr %0, i64 20
  %12 = load i8, ptr %11, align 1, !tbaa !3
  %13 = zext i8 %12 to i32
  %14 = shl nuw i32 %13, 24
  %15 = getelementptr inbounds nuw i8, ptr %0, i64 21
  %16 = load i8, ptr %15, align 1, !tbaa !3
  %17 = zext i8 %16 to i32
  %18 = shl nuw nsw i32 %17, 16
  %19 = or disjoint i32 %18, %14
  %20 = getelementptr inbounds nuw i8, ptr %0, i64 22
  %21 = load i8, ptr %20, align 1, !tbaa !3
  %22 = zext i8 %21 to i32
  %23 = shl nuw nsw i32 %22, 8
  %24 = or disjoint i32 %19, %23
  %25 = getelementptr inbounds nuw i8, ptr %0, i64 23
  %26 = load i8, ptr %25, align 1, !tbaa !3
  %27 = zext i8 %26 to i32
  %28 = or disjoint i32 %24, %27
  %29 = icmp ult i32 %28, 16
  br i1 %29, label %30, label %53

30:                                               ; preds = %10
  %31 = load i32, ptr %5, align 4, !tbaa !6
  %32 = and i32 %31, 7
  %.not11.i.i = icmp eq i32 %32, 4
  br i1 %.not11.i.i, label %53, label %33

33:                                               ; preds = %30
  %34 = getelementptr inbounds nuw i8, ptr %9, i64 4
  %35 = load i8, ptr %34, align 1, !tbaa !3
  %36 = zext i8 %35 to i32
  %37 = shl nuw i32 %36, 24
  %38 = getelementptr inbounds nuw i8, ptr %9, i64 5
  %39 = load i8, ptr %38, align 1, !tbaa !3
  %40 = zext i8 %39 to i32
  %41 = shl nuw nsw i32 %40, 16
  %42 = or disjoint i32 %41, %37
  %43 = getelementptr inbounds nuw i8, ptr %9, i64 6
  %44 = load i8, ptr %43, align 1, !tbaa !3
  %45 = zext i8 %44 to i32
  %46 = shl nuw nsw i32 %45, 8
  %47 = or disjoint i32 %42, %46
  %48 = getelementptr inbounds nuw i8, ptr %9, i64 7
  %49 = load i8, ptr %48, align 1, !tbaa !3
  %50 = zext i8 %49 to i32
  %51 = or disjoint i32 %47, %50
  %52 = icmp ugt i32 %51, 7
  br i1 %52, label %56, label %53

53:                                               ; preds = %33, %30, %10
  br label %56

54:                                               ; preds = %4
  call void @llvm.lifetime.end.p0(i64 4, ptr nonnull %5) #9
  %55 = load i32, ptr %6, align 4, !tbaa !6
  br label %.loopexit

56:                                               ; preds = %33, %53
  %.sink = phi i64 [ 12, %53 ], [ 16, %33 ]
  %57 = getelementptr inbounds nuw i8, ptr %9, i64 %.sink
  call void @llvm.lifetime.end.p0(i64 4, ptr nonnull %5) #9
  %58 = call i64 @strlen(ptr noundef nonnull dereferenceable(1) %3) #10
  %59 = trunc i64 %58 to i32
  %60 = load i32, ptr %6, align 4, !tbaa !6
  %61 = sext i32 %60 to i64
  %62 = getelementptr inbounds i8, ptr %57, i64 %61
  %63 = ptrtoint ptr %62 to i64
  %64 = icmp sgt i32 %60, 0
  br i1 %64, label %.lr.ph, label %.loopexit

.lr.ph:                                           ; preds = %56, %77
  %.01927 = phi ptr [ %71, %77 ], [ %57, %56 ]
  %.02026 = phi i32 [ %78, %77 ], [ 0, %56 ]
  %65 = ptrtoint ptr %.01927 to i64
  %66 = sub i64 %63, %65
  %67 = call i64 @strnlen(ptr noundef %.01927, i64 noundef %66) #10
  %68 = trunc i64 %67 to i32
  %69 = add i32 %68, 1
  store i32 %69, ptr %6, align 4, !tbaa !6
  %70 = sext i32 %69 to i64
  %71 = getelementptr inbounds i8, ptr %.01927, i64 %70
  %72 = icmp ugt ptr %71, %62
  br i1 %72, label %.loopexit, label %73

73:                                               ; preds = %.lr.ph
  %74 = icmp eq i32 %68, %59
  br i1 %74, label %75, label %77

75:                                               ; preds = %73
  %bcmp = call i32 @bcmp(ptr %.01927, ptr nonnull %3, i64 %70)
  %76 = icmp eq i32 %bcmp, 0
  br i1 %76, label %.loopexit, label %77

77:                                               ; preds = %75, %73
  %78 = add nuw nsw i32 %.02026, 1
  %79 = icmp ult ptr %71, %62
  br i1 %79, label %.lr.ph, label %.loopexit, !llvm.loop !28

.loopexit:                                        ; preds = %.lr.ph, %75, %77, %56, %54
  %.0 = phi i32 [ %55, %54 ], [ -1, %56 ], [ -15, %.lr.ph ], [ %.02026, %75 ], [ -1, %77 ]
  call void @llvm.lifetime.end.p0(i64 4, ptr nonnull %6) #9
  ret i32 %.0
}